(dp0
S'show_imports'
p1
I0
sS'prj_name'
p2
S'oVPN Client for Windwos'
p3
sS'docformat'
p4
S'epytext'
p5
sS'inheritance'
p6
S'grouped'
p7
sS'help'
p8
NsS'modules'
p9
(VE:/Persoenlich/ovpn-client/ovpn_client.py
p10
tp11
sS'private'
p12
I1
sS'prj_url'
p13
S'https://oVPN.to'
p14
sS'introspect_or_parse'
p15
S'both'
p16
sS'frames'
p17
I1
sS'css'
p18
S'default'
p19
sS'target'
p20
S'E:/Persoenlich/ovpn-client/else/Epydoc/output'
p21
s.